; Function Attrs: mustprogress nounwind uwtable
define hidden noundef ptr @_ZN11XForwarding11detach_pageEv(ptr noundef nonnull align 8 dereferenceable(134) %0) local_unnamed_addr #1 align 2 {
  %2 = getelementptr inbounds i8, ptr %0, i64 128
  %3 = load volatile i32, ptr %2, align 8
  tail call void asm sideeffect "", "~{memory},~{dirflag},~{fpsr},~{flags}"() #7, !srcloc !6
  %.not = icmp eq i32 %3, 0
  br i1 %.not, label %11, label %4

4:                                                ; preds = %1
  %5 = getelementptr inbounds i8, ptr %0, i64 40
  %6 = tail call i32 @pthread_mutex_lock(ptr noundef nonnull %5) #7
  %7 = load volatile i32, ptr %2, align 8
  tail call void asm sideeffect "", "~{memory},~{dirflag},~{fpsr},~{flags}"() #7, !srcloc !6
  %.not23 = icmp eq i32 %7, 0
  br i1 %.not23, label %_ZN7XLockerI14XConditionLockED2Ev.exit, label %.lr.ph

.lr.ph:                                           ; preds = %4, %.lr.ph
  %8 = tail call noundef i32 @_ZN15PlatformMonitor4waitEm(ptr noundef nonnull align 8 dereferenceable(88) %5, i64 noundef 0) #7
  %9 = load volatile i32, ptr %2, align 8
  tail call void asm sideeffect "", "~{memory},~{dirflag},~{fpsr},~{flags}"() #7, !srcloc !6
  %.not2 = icmp eq i32 %9, 0
  br i1 %.not2, label %_ZN7XLockerI14XConditionLockED2Ev.exit, label %.lr.ph, !llvm.loop !14

_ZN7XLockerI14XConditionLockED2Ev.exit:           ; preds = %.lr.ph, %4
  %10 = tail call i32 @pthread_mutex_unlock(ptr noundef nonnull %5) #7
  br label %11

11:                                               ; preds = %_ZN7XLockerI14XConditionLockED2Ev.exit, %1
  %12 = getelementptr inbounds i8, ptr %0, i64 32
  %13 = load ptr, ptr %12, align 8
  store ptr null, ptr %12, align 8
  ret ptr %13
}